; ModuleID = '31/229.c'
source_filename = "31/229.c"
target datalayout = "e-m:e-p270:32:32-p271:32:32-p272:64:64-i64:64-f80:128-n8:16:32:64-S128"
target triple = "x86_64-pc-linux-gnu"

%struct.stu = type { [16 x i8], [32 x i8], i8, i32, [8 x i8], [16 x i8], %struct.stu* }

@n = common dso_local global i32 0, align 4
@.str = private unnamed_addr constant [3 x i8] c"%s\00", align 1
@.str.1 = private unnamed_addr constant [4 x i8] c"end\00", align 1
@.str.2 = private unnamed_addr constant [15 x i8] c"%s %c %d %s %s\00", align 1
@.str.3 = private unnamed_addr constant [19 x i8] c"%s %s %c %d %s %s\0A\00", align 1

; Function Attrs: noinline nounwind uwtable
define dso_local %struct.stu* @creat() #0 {
  %1 = alloca %struct.stu*, align 8
  %2 = alloca %struct.stu*, align 8
  %3 = alloca %struct.stu*, align 8
  store i32 0, i32* @n, align 4
  store %struct.stu* null, %struct.stu** %1, align 8
  %4 = call noalias i8* @malloc(i64 88) #4
  %5 = bitcast i8* %4 to %struct.stu*
  store %struct.stu* %5, %struct.stu** %3, align 8
  store %struct.stu* %5, %struct.stu** %2, align 8
  %6 = load %struct.stu*, %struct.stu** %2, align 8
  %7 = getelementptr inbounds %struct.stu, %struct.stu* %6, i32 0, i32 0
  %8 = getelementptr inbounds [16 x i8], [16 x i8]* %7, i64 0, i64 0
  %9 = call i32 (i8*, ...) @__isoc99_scanf(i8* getelementptr inbounds ([3 x i8], [3 x i8]* @.str, i64 0, i64 0), i8* %8)
  br label %10

10:                                               ; preds = %44, %0
  %11 = load %struct.stu*, %struct.stu** %2, align 8
  %12 = getelementptr inbounds %struct.stu, %struct.stu* %11, i32 0, i32 0
  %13 = getelementptr inbounds [16 x i8], [16 x i8]* %12, i64 0, i64 0
  %14 = call i32 @strcmp(i8* %13, i8* getelementptr inbounds ([4 x i8], [4 x i8]* @.str.1, i64 0, i64 0)) #5
  %15 = icmp ne i32 %14, 0
  br i1 %15, label %16, label %52

16:                                               ; preds = %10
  %17 = load %struct.stu*, %struct.stu** %2, align 8
  %18 = getelementptr inbounds %struct.stu, %struct.stu* %17, i32 0, i32 1
  %19 = getelementptr inbounds [32 x i8], [32 x i8]* %18, i64 0, i64 0
  %20 = load %struct.stu*, %struct.stu** %2, align 8
  %21 = getelementptr inbounds %struct.stu, %struct.stu* %20, i32 0, i32 2
  %22 = load %struct.stu*, %struct.stu** %2, align 8
  %23 = getelementptr inbounds %struct.stu, %struct.stu* %22, i32 0, i32 3
  %24 = load %struct.stu*, %struct.stu** %2, align 8
  %25 = getelementptr inbounds %struct.stu, %struct.stu* %24, i32 0, i32 4
  %26 = getelementptr inbounds [8 x i8], [8 x i8]* %25, i64 0, i64 0
  %27 = load %struct.stu*, %struct.stu** %2, align 8
  %28 = getelementptr inbounds %struct.stu, %struct.stu* %27, i32 0, i32 5
  %29 = getelementptr inbounds [16 x i8], [16 x i8]* %28, i64 0, i64 0
  %30 = call i32 (i8*, ...) @__isoc99_scanf(i8* getelementptr inbounds ([15 x i8], [15 x i8]* @.str.2, i64 0, i64 0), i8* %19, i8* %21, i32* %23, i8* %26, i8* %29)
  %31 = load i32, i32* @n, align 4
  %32 = add nsw i32 %31, 1
  store i32 %32, i32* @n, align 4
  %33 = load i32, i32* @n, align 4
  %34 = icmp eq i32 %33, 1
  br i1 %34, label %35, label %39

35:                                               ; preds = %16
  %36 = load %struct.stu*, %struct.stu** %2, align 8
  store %struct.stu* %36, %struct.stu** %1, align 8
  %37 = load %struct.stu*, %struct.stu** %2, align 8
  %38 = getelementptr inbounds %struct.stu, %struct.stu* %37, i32 0, i32 6
  store %struct.stu* null, %struct.stu** %38, align 8
  br label %44

39:                                               ; preds = %16
  %40 = load %struct.stu*, %struct.stu** %3, align 8
  %41 = load %struct.stu*, %struct.stu** %2, align 8
  %42 = getelementptr inbounds %struct.stu, %struct.stu* %41, i32 0, i32 6
  store %struct.stu* %40, %struct.stu** %42, align 8
  %43 = load %struct.stu*, %struct.stu** %2, align 8
  store %struct.stu* %43, %struct.stu** %1, align 8
  br label %44

44:                                               ; preds = %39, %35
  %45 = load %struct.stu*, %struct.stu** %2, align 8
  store %struct.stu* %45, %struct.stu** %3, align 8
  %46 = call noalias i8* @malloc(i64 88) #4
  %47 = bitcast i8* %46 to %struct.stu*
  store %struct.stu* %47, %struct.stu** %2, align 8
  %48 = load %struct.stu*, %struct.stu** %2, align 8
  %49 = getelementptr inbounds %struct.stu, %struct.stu* %48, i32 0, i32 0
  %50 = getelementptr inbounds [16 x i8], [16 x i8]* %49, i64 0, i64 0
  %51 = call i32 (i8*, ...) @__isoc99_scanf(i8* getelementptr inbounds ([3 x i8], [3 x i8]* @.str, i64 0, i64 0), i8* %50)
  br label %10

52:                                               ; preds = %10
  %53 = load %struct.stu*, %struct.stu** %1, align 8
  ret %struct.stu* %53
}

; Function Attrs: nounwind
declare dso_local noalias i8* @malloc(i64) #1

declare dso_local i32 @__isoc99_scanf(i8*, ...) #2

; Function Attrs: nounwind readonly
declare dso_local i32 @strcmp(i8*, i8*) #3

; Function Attrs: noinline nounwind uwtable
define dso_local void @main() #0 {
  %1 = alloca %struct.stu*, align 8
  %2 = alloca %struct.stu*, align 8
  %3 = call %struct.stu* @creat()
  store %struct.stu* %3, %struct.stu** %1, align 8
  %4 = load %struct.stu*, %struct.stu** %1, align 8
  store %struct.stu* %4, %struct.stu** %2, align 8
  %5 = load %struct.stu*, %struct.stu** %1, align 8
  %6 = icmp ne %struct.stu* %5, null
  br i1 %6, label %7, label %36

7:                                                ; preds = %0
  br label %8

8:                                                ; preds = %32, %7
  %9 = load %struct.stu*, %struct.stu** %2, align 8
  %10 = getelementptr inbounds %struct.stu, %struct.stu* %9, i32 0, i32 0
  %11 = getelementptr inbounds [16 x i8], [16 x i8]* %10, i64 0, i64 0
  %12 = load %struct.stu*, %struct.stu** %2, align 8
  %13 = getelementptr inbounds %struct.stu, %struct.stu* %12, i32 0, i32 1
  %14 = getelementptr inbounds [32 x i8], [32 x i8]* %13, i64 0, i64 0
  %15 = load %struct.stu*, %struct.stu** %2, align 8
  %16 = getelementptr inbounds %struct.stu, %struct.stu* %15, i32 0, i32 2
  %17 = load i8, i8* %16, align 8
  %18 = sext i8 %17 to i32
  %19 = load %struct.stu*, %struct.stu** %2, align 8
  %20 = getelementptr inbounds %struct.stu, %struct.stu* %19, i32 0, i32 3
  %21 = load i32, i32* %20, align 4
  %22 = load %struct.stu*, %struct.stu** %2, align 8
  %23 = getelementptr inbounds %struct.stu, %struct.stu* %22, i32 0, i32 4
  %24 = getelementptr inbounds [8 x i8], [8 x i8]* %23, i64 0, i64 0
  %25 = load %struct.stu*, %struct.stu** %2, align 8
  %26 = getelementptr inbounds %struct.stu, %struct.stu* %25, i32 0, i32 5
  %27 = getelementptr inbounds [16 x i8], [16 x i8]* %26, i64 0, i64 0
  %28 = call i32 (i8*, ...) @printf(i8* getelementptr inbounds ([19 x i8], [19 x i8]* @.str.3, i64 0, i64 0), i8* %11, i8* %14, i32 %18, i32 %21, i8* %24, i8* %27)
  %29 = load %struct.stu*, %struct.stu** %2, align 8
  %30 = getelementptr inbounds %struct.stu, %struct.stu* %29, i32 0, i32 6
  %31 = load %struct.stu*, %struct.stu** %30, align 8
  store %struct.stu* %31, %struct.stu** %2, align 8
  br label %32

32:                                               ; preds = %8
  %33 = load %struct.stu*, %struct.stu** %2, align 8
  %34 = icmp ne %struct.stu* %33, null
  br i1 %34, label %8, label %35

35:                                               ; preds = %32
  br label %36

36:                                               ; preds = %35, %0
  ret void
}

declare dso_local i32 @printf(i8*, ...) #2


!llvm.module.flags = !{!0}
!llvm.ident = !{!1}

!0 = !{i32 1, !"wchar_size", i32 4}
!1 = !{!"clang version 10.0.0-4ubuntu1 "}
